; Function Attrs: nounwind uwtable
define ptr @l_Lean_Widget_TaggedText_mapM___at_Lean_Widget_CodeWithInfos_mergePosMap___spec__2___rarg___lambda__3(ptr noundef %0, ptr noundef %1, ptr noundef %2, ptr noundef %3, ptr noundef %4) #1 {
  %6 = ptrtoint ptr %0 to i64
  %7 = and i64 %6, 1
  %.not = icmp eq i64 %7, 0
  br i1 %.not, label %8, label %lean_inc.exit

8:                                                ; preds = %5
  %.val.i = load i32, ptr %0, align 4, !tbaa !4
  %9 = icmp sgt i32 %.val.i, 0
  br i1 %9, label %10, label %12, !prof !9

10:                                               ; preds = %8
  %11 = add nuw i32 %.val.i, 1
  store i32 %11, ptr %0, align 4, !tbaa !4
  br label %lean_inc.exit

12:                                               ; preds = %8
  %.not.i = icmp eq i32 %.val.i, 0
  br i1 %.not.i, label %lean_inc.exit, label %13

13:                                               ; preds = %12
  tail call void @lean_inc_ref_cold(ptr noundef nonnull %0) #8
  br label %lean_inc.exit

lean_inc.exit:                                    ; preds = %13, %12, %10, %5
  %14 = tail call ptr @l_Lean_Widget_TaggedText_mapM___at_Lean_Widget_CodeWithInfos_mergePosMap___spec__2___rarg(ptr noundef %0, ptr noundef %1, ptr noundef %2)
  tail call void @lean_inc_heartbeat() #8
  %15 = tail call noalias ptr @mi_malloc_small(i64 noundef 40) #8
  %16 = icmp eq ptr %15, null
  br i1 %16, label %17, label %lean_alloc_closure.exit

17:                                               ; preds = %lean_inc.exit
  tail call void @lean_internal_panic_out_of_memory() #9
  unreachable

lean_alloc_closure.exit:                          ; preds = %lean_inc.exit
  %18 = getelementptr inbounds nuw i8, ptr %15, i64 4
  store i32 1, ptr %15, align 4, !tbaa !4
  store i32 -184549336, ptr %18, align 4
  %19 = getelementptr inbounds nuw i8, ptr %15, i64 8
  store ptr @l_Lean_Widget_TaggedText_mapM___at_Lean_Widget_CodeWithInfos_mergePosMap___spec__2___rarg___lambda__2, ptr %19, align 8, !tbaa !10
  %20 = getelementptr inbounds nuw i8, ptr %15, i64 16
  store i16 3, ptr %20, align 8, !tbaa !12
  %21 = getelementptr inbounds nuw i8, ptr %15, i64 18
  store i16 2, ptr %21, align 2, !tbaa !12
  %22 = getelementptr inbounds nuw i8, ptr %15, i64 24
  store ptr %0, ptr %22, align 8, !tbaa !10
  %23 = getelementptr inbounds nuw i8, ptr %15, i64 32
  store ptr %4, ptr %23, align 8, !tbaa !10
  %24 = tail call ptr @lean_apply_4(ptr noundef %3, ptr noundef nonnull inttoptr (i64 1 to ptr), ptr noundef nonnull inttoptr (i64 1 to ptr), ptr noundef %14, ptr noundef nonnull %15) #8
  ret ptr %24
}